target datalayout = "e-m:e-p270:32:32-p271:32:32-p272:64:64-i64:64-i128:128-f80:128-n8:16:32:64-S128"
target triple = "x86_64-pc-linux-gnu"

%"class.cvc5::internal::NodeTemplate" = type { ptr }
%"class.cvc5::internal::expr::NodeValue" = type { i64, i64, ptr, [0 x ptr] }

; Function Attrs: inlinehint mustprogress nounwind uwtable
define linkonce_odr hidden void @_ZNK4cvc58internal12NodeTemplateILb1EE21assertTNodeNotExpiredEv(ptr noundef nonnull align 8 dereferenceable(8) %0) #7 comdat align 2 {
  %2 = alloca ptr, align 8
  store ptr %0, ptr %2, align 8, !tbaa !14
  ret void
}

; Function Attrs: inlinehint mustprogress nounwind uwtable
define linkonce_odr hidden noundef i32 @_ZNK4cvc58internal12NodeTemplateILb1EE7getKindEv(ptr noundef nonnull align 8 dereferenceable(8) %0) #7 comdat align 2 {
  %2 = alloca ptr, align 8
  store ptr %0, ptr %2, align 8, !tbaa !14
  %3 = load ptr, ptr %2, align 8
  call void @_ZNK4cvc58internal12NodeTemplateILb1EE21assertTNodeNotExpiredEv(ptr noundef nonnull align 8 dereferenceable(8) %3)
  %4 = getelementptr inbounds nuw %"class.cvc5::internal::NodeTemplate", ptr %3, i32 0, i32 0
  %5 = load ptr, ptr %4, align 8, !tbaa !38
  %6 = getelementptr inbounds nuw %"class.cvc5::internal::expr::NodeValue", ptr %5, i32 0, i32 1
  %7 = load i64, ptr %6, align 8
  %8 = and i64 %7, 1023
  %9 = trunc i64 %8 to i32
  ret i32 %9
}

; Function Attrs: mustprogress uwtable
define hidden void @_ZN4cvc58internal6theory13QuantPhaseReq17getEntailPolarityENS0_12NodeTemplateILb1EEEmbbRbS5_(ptr noundef %0, i64 noundef %1, i1 noundef zeroext %2, i1 noundef zeroext %3, ptr noundef nonnull align 1 dereferenceable(1) %4, ptr noundef nonnull align 1 dereferenceable(1) %5) #4 align 2 {
  %7 = alloca ptr, align 8
  %8 = alloca i64, align 8
  %9 = alloca i8, align 1
  %10 = alloca i8, align 1
  %11 = alloca ptr, align 8
  %12 = alloca ptr, align 8
  store ptr %0, ptr %7, align 8, !tbaa !14
  store i64 %1, ptr %8, align 8, !tbaa !70
  %13 = zext i1 %2 to i8
  store i8 %13, ptr %9, align 1, !tbaa !16
  %14 = zext i1 %3 to i8
  store i8 %14, ptr %10, align 1, !tbaa !16
  store ptr %4, ptr %11, align 8, !tbaa !82
  store ptr %5, ptr %12, align 8, !tbaa !82
  %15 = call noundef i32 @_ZNK4cvc58internal12NodeTemplateILb1EE7getKindEv(ptr noundef nonnull align 8 dereferenceable(8) %0)
  %16 = icmp eq i32 %15, 22
  br i1 %16, label %23, label %17

17:                                               ; preds = %6
  %18 = call noundef i32 @_ZNK4cvc58internal12NodeTemplateILb1EE7getKindEv(ptr noundef nonnull align 8 dereferenceable(8) %0)
  %19 = icmp eq i32 %18, 24
  br i1 %19, label %23, label %20

20:                                               ; preds = %17
  %21 = call noundef i32 @_ZNK4cvc58internal12NodeTemplateILb1EE7getKindEv(ptr noundef nonnull align 8 dereferenceable(8) %0)
  %22 = icmp eq i32 %21, 249
  br i1 %22, label %23, label %42

23:                                               ; preds = %20, %17, %6
  %24 = load i8, ptr %9, align 1, !tbaa !16, !range !18, !noundef !19
  %25 = trunc i8 %24 to i1
  br i1 %25, label %26, label %34

26:                                               ; preds = %23
  %27 = load i8, ptr %10, align 1, !tbaa !16, !range !18, !noundef !19
  %28 = trunc i8 %27 to i1
  %29 = zext i1 %28 to i32
  %30 = call noundef i32 @_ZNK4cvc58internal12NodeTemplateILb1EE7getKindEv(ptr noundef nonnull align 8 dereferenceable(8) %0)
  %31 = icmp eq i32 %30, 24
  %32 = zext i1 %31 to i32
  %33 = icmp ne i32 %29, %32
  br label %34

34:                                               ; preds = %26, %23
  %35 = phi i1 [ false, %23 ], [ %33, %26 ]
  %36 = load ptr, ptr %11, align 8, !tbaa !82
  %37 = zext i1 %35 to i8
  store i8 %37, ptr %36, align 1, !tbaa !16
  %38 = load i8, ptr %10, align 1, !tbaa !16, !range !18, !noundef !19
  %39 = trunc i8 %38 to i1
  %40 = load ptr, ptr %12, align 8, !tbaa !82
  %41 = zext i1 %39 to i8
  store i8 %41, ptr %40, align 1, !tbaa !16
  br label %87

42:                                               ; preds = %20
  %43 = call noundef i32 @_ZNK4cvc58internal12NodeTemplateILb1EE7getKindEv(ptr noundef nonnull align 8 dereferenceable(8) %0)
  %44 = icmp eq i32 %43, 23
  br i1 %44, label %45, label %69

45:                                               ; preds = %42
  %46 = load i8, ptr %9, align 1, !tbaa !16, !range !18, !noundef !19
  %47 = trunc i8 %46 to i1
  br i1 %47, label %48, label %52

48:                                               ; preds = %45
  %49 = load i8, ptr %10, align 1, !tbaa !16, !range !18, !noundef !19
  %50 = trunc i8 %49 to i1
  %51 = xor i1 %50, true
  br label %52

52:                                               ; preds = %48, %45
  %53 = phi i1 [ false, %45 ], [ %51, %48 ]
  %54 = load ptr, ptr %11, align 8, !tbaa !82
  %55 = zext i1 %53 to i8
  store i8 %55, ptr %54, align 1, !tbaa !16
  %56 = load i64, ptr %8, align 8, !tbaa !70
  %57 = icmp eq i64 %56, 0
  br i1 %57, label %58, label %62

58:                                               ; preds = %52
  %59 = load i8, ptr %10, align 1, !tbaa !16, !range !18, !noundef !19
  %60 = trunc i8 %59 to i1
  %61 = xor i1 %60, true
  br label %65

62:                                               ; preds = %52
  %63 = load i8, ptr %10, align 1, !tbaa !16, !range !18, !noundef !19
  %64 = trunc i8 %63 to i1
  br label %65

65:                                               ; preds = %62, %58
  %66 = phi i1 [ %61, %58 ], [ %64, %62 ]
  %67 = load ptr, ptr %12, align 8, !tbaa !82
  %68 = zext i1 %66 to i8
  store i8 %68, ptr %67, align 1, !tbaa !16
  br label %86

69:                                               ; preds = %42
  %70 = call noundef i32 @_ZNK4cvc58internal12NodeTemplateILb1EE7getKindEv(ptr noundef nonnull align 8 dereferenceable(8) %0)
  %71 = icmp eq i32 %70, 21
  br i1 %71, label %72, label %82

72:                                               ; preds = %69
  %73 = load i8, ptr %9, align 1, !tbaa !16, !range !18, !noundef !19
  %74 = trunc i8 %73 to i1
  %75 = load ptr, ptr %11, align 8, !tbaa !82
  %76 = zext i1 %74 to i8
  store i8 %76, ptr %75, align 1, !tbaa !16
  %77 = load i8, ptr %10, align 1, !tbaa !16, !range !18, !noundef !19
  %78 = trunc i8 %77 to i1
  %79 = xor i1 %78, true
  %80 = load ptr, ptr %12, align 8, !tbaa !82
  %81 = zext i1 %79 to i8
  store i8 %81, ptr %80, align 1, !tbaa !16
  br label %85

82:                                               ; preds = %69
  %83 = load ptr, ptr %11, align 8, !tbaa !82
  store i8 0, ptr %83, align 1, !tbaa !16
  %84 = load ptr, ptr %12, align 8, !tbaa !82
  store i8 0, ptr %84, align 1, !tbaa !16
  br label %85

85:                                               ; preds = %82, %72
  br label %86

86:                                               ; preds = %85, %65
  br label %87

87:                                               ; preds = %86, %34
  ret void
}