; Function Attrs: mustprogress nofree norecurse nosync nounwind willreturn memory(read, argmem: readwrite, inaccessiblemem: none) uwtable
define hidden void @_ZN4cvc58internal6theory13QuantPhaseReq17getEntailPolarityENS0_12NodeTemplateILb1EEEmbbRbS5_(ptr noundef readonly captures(none) %0, i64 noundef %1, i1 noundef zeroext %2, i1 noundef zeroext %3, ptr noundef nonnull writeonly align 1 captures(none) dereferenceable(1) initializes((0, 1)) %4, ptr noundef nonnull writeonly align 1 captures(none) dereferenceable(1) initializes((0, 1)) %5) local_unnamed_addr #6 align 2 {
  %7 = load ptr, ptr %0, align 8, !tbaa !18
  %8 = getelementptr inbounds nuw i8, ptr %7, i64 8
  %9 = load i64, ptr %8, align 8
  %10 = trunc i64 %9 to i32
  %11 = and i32 %10, 1023
  switch i32 %11, label %24 [
    i32 22, label %12
    i32 24, label %12
    i32 249, label %12
    i32 23, label %16
    i32 21, label %21
  ]

12:                                               ; preds = %6, %6, %6
  %13 = icmp eq i32 %11, 24
  %14 = xor i1 %3, %13
  %narrow = and i1 %2, %14
  %15 = zext i1 %narrow to i8
  store i8 %15, ptr %4, align 1, !tbaa !31
  br label %25

16:                                               ; preds = %6
  %17 = xor i1 %3, true
  %18 = and i1 %2, %17
  %19 = zext i1 %18 to i8
  store i8 %19, ptr %4, align 1, !tbaa !31
  %20 = icmp eq i64 %1, 0
  %. = select i1 %20, i1 %17, i1 %3
  br label %25

21:                                               ; preds = %6
  %22 = zext i1 %2 to i8
  store i8 %22, ptr %4, align 1, !tbaa !31
  %23 = xor i1 %3, true
  br label %25

24:                                               ; preds = %6
  store i8 0, ptr %4, align 1, !tbaa !31
  br label %25

25:                                               ; preds = %16, %24, %21, %12
  %.sink.shrunk = phi i1 [ %., %16 ], [ false, %24 ], [ %23, %21 ], [ %3, %12 ]
  %.sink = zext i1 %.sink.shrunk to i8
  store i8 %.sink, ptr %5, align 1, !tbaa !31
  ret void
}